; ModuleID = '33/2794.c'
source_filename = "33/2794.c"
target datalayout = "e-m:e-p270:32:32-p271:32:32-p272:64:64-i64:64-f80:128-n8:16:32:64-S128"
target triple = "x86_64-pc-linux-gnu"

@.str = private unnamed_addr constant [3 x i8] c"%d\00", align 1
@.str.1 = private unnamed_addr constant [3 x i8] c"%s\00", align 1

; Function Attrs: noinline nounwind uwtable
define dso_local i32 @main(i32 %0, i8** %1) #0 {
  %3 = alloca i32, align 4
  %4 = alloca i32, align 4
  %5 = alloca i8**, align 8
  %6 = alloca i32, align 4
  %7 = alloca i32, align 4
  %8 = alloca [255 x i8], align 16
  %9 = alloca i32, align 4
  %10 = alloca i32, align 4
  store i32 0, i32* %3, align 4
  store i32 %0, i32* %4, align 4
  store i8** %1, i8*** %5, align 8
  %11 = call i32 (i8*, ...) @__isoc99_scanf(i8* getelementptr inbounds ([3 x i8], [3 x i8]* @.str, i64 0, i64 0), i32* %6)
  store i32 0, i32* %7, align 4
  br label %12

12:                                               ; preds = %108, %2
  %13 = load i32, i32* %7, align 4
  %14 = load i32, i32* %6, align 4
  %15 = icmp slt i32 %13, %14
  br i1 %15, label %16, label %111

16:                                               ; preds = %12
  %17 = getelementptr inbounds [255 x i8], [255 x i8]* %8, i64 0, i64 0
  %18 = call i32 (i8*, ...) @__isoc99_scanf(i8* getelementptr inbounds ([3 x i8], [3 x i8]* @.str.1, i64 0, i64 0), i8* %17)
  %19 = getelementptr inbounds [255 x i8], [255 x i8]* %8, i64 0, i64 0
  %20 = call i64 @strlen(i8* %19) #3
  %21 = trunc i64 %20 to i32
  store i32 %21, i32* %9, align 4
  store i32 0, i32* %10, align 4
  br label %22

22:                                               ; preds = %102, %16
  %23 = load i32, i32* %10, align 4
  %24 = load i32, i32* %9, align 4
  %25 = icmp slt i32 %23, %24
  br i1 %25, label %26, label %105

26:                                               ; preds = %22
  %27 = load i32, i32* %10, align 4
  %28 = sext i32 %27 to i64
  %29 = getelementptr inbounds [255 x i8], [255 x i8]* %8, i64 0, i64 %28
  %30 = load i8, i8* %29, align 1
  %31 = sext i8 %30 to i32
  %32 = icmp eq i32 %31, 65
  br i1 %32, label %33, label %44

33:                                               ; preds = %26
  %34 = load i32, i32* %10, align 4
  %35 = sext i32 %34 to i64
  %36 = getelementptr inbounds [255 x i8], [255 x i8]* %8, i64 0, i64 %35
  %37 = load i8, i8* %36, align 1
  %38 = sext i8 %37 to i32
  %39 = add nsw i32 %38, 19
  %40 = trunc i32 %39 to i8
  %41 = load i32, i32* %10, align 4
  %42 = sext i32 %41 to i64
  %43 = getelementptr inbounds [255 x i8], [255 x i8]* %8, i64 0, i64 %42
  store i8 %40, i8* %43, align 1
  br label %101

44:                                               ; preds = %26
  %45 = load i32, i32* %10, align 4
  %46 = sext i32 %45 to i64
  %47 = getelementptr inbounds [255 x i8], [255 x i8]* %8, i64 0, i64 %46
  %48 = load i8, i8* %47, align 1
  %49 = sext i8 %48 to i32
  %50 = icmp eq i32 %49, 84
  br i1 %50, label %51, label %62

51:                                               ; preds = %44
  %52 = load i32, i32* %10, align 4
  %53 = sext i32 %52 to i64
  %54 = getelementptr inbounds [255 x i8], [255 x i8]* %8, i64 0, i64 %53
  %55 = load i8, i8* %54, align 1
  %56 = sext i8 %55 to i32
  %57 = sub nsw i32 %56, 19
  %58 = trunc i32 %57 to i8
  %59 = load i32, i32* %10, align 4
  %60 = sext i32 %59 to i64
  %61 = getelementptr inbounds [255 x i8], [255 x i8]* %8, i64 0, i64 %60
  store i8 %58, i8* %61, align 1
  br label %100

62:                                               ; preds = %44
  %63 = load i32, i32* %10, align 4
  %64 = sext i32 %63 to i64
  %65 = getelementptr inbounds [255 x i8], [255 x i8]* %8, i64 0, i64 %64
  %66 = load i8, i8* %65, align 1
  %67 = sext i8 %66 to i32
  %68 = icmp eq i32 %67, 67
  br i1 %68, label %69, label %80

69:                                               ; preds = %62
  %70 = load i32, i32* %10, align 4
  %71 = sext i32 %70 to i64
  %72 = getelementptr inbounds [255 x i8], [255 x i8]* %8, i64 0, i64 %71
  %73 = load i8, i8* %72, align 1
  %74 = sext i8 %73 to i32
  %75 = add nsw i32 %74, 4
  %76 = trunc i32 %75 to i8
  %77 = load i32, i32* %10, align 4
  %78 = sext i32 %77 to i64
  %79 = getelementptr inbounds [255 x i8], [255 x i8]* %8, i64 0, i64 %78
  store i8 %76, i8* %79, align 1
  br label %99

80:                                               ; preds = %62
  %81 = load i32, i32* %10, align 4
  %82 = sext i32 %81 to i64
  %83 = getelementptr inbounds [255 x i8], [255 x i8]* %8, i64 0, i64 %82
  %84 = load i8, i8* %83, align 1
  %85 = sext i8 %84 to i32
  %86 = icmp eq i32 %85, 71
  br i1 %86, label %87, label %98

87:                                               ; preds = %80
  %88 = load i32, i32* %10, align 4
  %89 = sext i32 %88 to i64
  %90 = getelementptr inbounds [255 x i8], [255 x i8]* %8, i64 0, i64 %89
  %91 = load i8, i8* %90, align 1
  %92 = sext i8 %91 to i32
  %93 = sub nsw i32 %92, 4
  %94 = trunc i32 %93 to i8
  %95 = load i32, i32* %10, align 4
  %96 = sext i32 %95 to i64
  %97 = getelementptr inbounds [255 x i8], [255 x i8]* %8, i64 0, i64 %96
  store i8 %94, i8* %97, align 1
  br label %98

98:                                               ; preds = %87, %80
  br label %99

99:                                               ; preds = %98, %69
  br label %100

100:                                              ; preds = %99, %51
  br label %101

101:                                              ; preds = %100, %33
  br label %102

102:                                              ; preds = %101
  %103 = load i32, i32* %10, align 4
  %104 = add nsw i32 %103, 1
  store i32 %104, i32* %10, align 4
  br label %22

105:                                              ; preds = %22
  %106 = getelementptr inbounds [255 x i8], [255 x i8]* %8, i64 0, i64 0
  %107 = call i32 @puts(i8* %106)
  br label %108

108:                                              ; preds = %105
  %109 = load i32, i32* %7, align 4
  %110 = add nsw i32 %109, 1
  store i32 %110, i32* %7, align 4
  br label %12

111:                                              ; preds = %12
  ret i32 0
}

declare dso_local i32 @__isoc99_scanf(i8*, ...) #1

; Function Attrs: nounwind readonly
declare dso_local i64 @strlen(i8*) #2

declare dso_local i32 @puts(i8*) #1


!llvm.module.flags = !{!0}
!llvm.ident = !{!1}

!0 = !{i32 1, !"wchar_size", i32 4}
!1 = !{!"clang version 10.0.0-4ubuntu1 "}
